target datalayout = "e-m:e-p270:32:32-p271:32:32-p272:64:64-i64:64-i128:128-f80:128-n8:16:32:64-S128"
target triple = "x86_64-pc-linux-gnu"

%"struct.llvm::RegisterBankInfo::ValueMapping" = type <{ ptr, i32, [4 x i8] }>

; Function Attrs: mustprogress nounwind uwtable
define dso_local noundef ptr @_ZN4llvm26AArch64GenRegisterBankInfo15getFPExtMappingEjj(i32 noundef %0, i32 noundef %1) #0 align 2 {
  %3 = alloca ptr, align 8
  %4 = alloca i32, align 4
  %5 = alloca i32, align 4
  store i32 %0, ptr %4, align 4
  store i32 %1, ptr %5, align 4
  %6 = load i32, ptr %5, align 4
  %7 = icmp eq i32 %6, 16
  br i1 %7, label %8, label %13

8:                                                ; preds = %2
  %9 = load i32, ptr %4, align 4
  %10 = icmp eq i32 %9, 32
  br i1 %10, label %11, label %12

11:                                               ; preds = %8
  store ptr getelementptr inbounds ([55 x %"struct.llvm::RegisterBankInfo::ValueMapping"], ptr @_ZN4llvm26AArch64GenRegisterBankInfo11ValMappingsE, i64 0, i64 44), ptr %3, align 8
  br label %18

12:                                               ; preds = %8
  store ptr getelementptr inbounds ([55 x %"struct.llvm::RegisterBankInfo::ValueMapping"], ptr @_ZN4llvm26AArch64GenRegisterBankInfo11ValMappingsE, i64 0, i64 46), ptr %3, align 8
  br label %18

13:                                               ; preds = %2
  %14 = load i32, ptr %5, align 4
  %15 = icmp eq i32 %14, 32
  br i1 %15, label %16, label %17

16:                                               ; preds = %13
  store ptr getelementptr inbounds ([55 x %"struct.llvm::RegisterBankInfo::ValueMapping"], ptr @_ZN4llvm26AArch64GenRegisterBankInfo11ValMappingsE, i64 0, i64 48), ptr %3, align 8
  br label %18

17:                                               ; preds = %13
  store ptr getelementptr inbounds ([55 x %"struct.llvm::RegisterBankInfo::ValueMapping"], ptr @_ZN4llvm26AArch64GenRegisterBankInfo11ValMappingsE, i64 0, i64 50), ptr %3, align 8
  br label %18

18:                                               ; preds = %17, %16, %12, %11
  %19 = load ptr, ptr %3, align 8
  ret ptr %19
}