; Function Attrs: mustprogress nofree norecurse nosync nounwind willreturn memory(none) uwtable
define dso_local noundef nonnull ptr @_ZN4llvm26AArch64GenRegisterBankInfo15getFPExtMappingEjj(i32 noundef %0, i32 noundef %1) local_unnamed_addr #3 align 2 {
  switch i32 %1, label %5 [
    i32 16, label %3
    i32 32, label %6
  ]

3:                                                ; preds = %2
  %4 = icmp eq i32 %0, 32
  %. = select i1 %4, ptr getelementptr inbounds (i8, ptr @_ZN4llvm26AArch64GenRegisterBankInfo11ValMappingsE, i64 704), ptr getelementptr inbounds (i8, ptr @_ZN4llvm26AArch64GenRegisterBankInfo11ValMappingsE, i64 736)
  br label %6

5:                                                ; preds = %2
  br label %6

6:                                                ; preds = %2, %3, %5
  %.0 = phi ptr [ getelementptr inbounds (i8, ptr @_ZN4llvm26AArch64GenRegisterBankInfo11ValMappingsE, i64 800), %5 ], [ %., %3 ], [ getelementptr inbounds (i8, ptr @_ZN4llvm26AArch64GenRegisterBankInfo11ValMappingsE, i64 768), %2 ]
  ret ptr %.0
}